target datalayout = "e-m:e-p270:32:32-p271:32:32-p272:64:64-i64:64-i128:128-f80:128-n8:16:32:64-S128"
target triple = "x86_64-pc-linux-gnu"

%struct.RBasic = type { i64, i64 }
%union.anon.15 = type { double }
%struct.RFloat = type { %struct.RBasic, double }

@rb_cRational = dso_local global i64 0, align 8

; Function Attrs: inlinehint nounwind sspstrong willreturn memory(none) uwtable
define internal zeroext i1 @RB_IMMEDIATE_P(i64 noundef %0) #8 {
  %2 = alloca i64, align 8
  store i64 %0, ptr %2, align 8, !tbaa !7
  %3 = load i64, ptr %2, align 8, !tbaa !7
  %4 = and i64 %3, 7
  %5 = icmp ne i64 %4, 0
  ret i1 %5
}

; Function Attrs: inlinehint nounwind sspstrong uwtable
define internal i64 @RUBY_BIT_ROTR(i64 noundef %0, i32 noundef %1) #3 {
  %3 = alloca i64, align 8
  %4 = alloca i32, align 4
  store i64 %0, ptr %3, align 8, !tbaa !7
  store i32 %1, ptr %4, align 4, !tbaa !14
  %5 = load i64, ptr %3, align 8, !tbaa !7
  %6 = load i32, ptr %4, align 4, !tbaa !14
  %7 = sext i32 %6 to i64
  %8 = call i64 @llvm.fshr.i64(i64 %5, i64 %5, i64 %7)
  ret i64 %8
}

; Function Attrs: inlinehint nounwind sspstrong willreturn memory(read) uwtable
define internal i32 @RB_BUILTIN_TYPE(i64 noundef %0) #5 {
  %2 = alloca i64, align 8
  %3 = alloca i64, align 8
  store i64 %0, ptr %2, align 8, !tbaa !7
  call void @llvm.lifetime.start.p0(i64 8, ptr %3) #21
  %4 = load i64, ptr %2, align 8, !tbaa !7
  %5 = inttoptr i64 %4 to ptr
  %6 = getelementptr inbounds nuw %struct.RBasic, ptr %5, i32 0, i32 0
  %7 = load i64, ptr %6, align 8, !tbaa !12
  %8 = and i64 %7, 31
  store i64 %8, ptr %3, align 8, !tbaa !7
  %9 = load i64, ptr %3, align 8, !tbaa !7
  %10 = trunc i64 %9 to i32
  call void @llvm.lifetime.end.p0(i64 8, ptr %3) #21
  ret i32 %10
}

; Function Attrs: inlinehint nounwind sspstrong willreturn memory(none) uwtable
define internal zeroext i1 @RB_SPECIAL_CONST_P(i64 noundef %0) #8 {
  %2 = alloca i64, align 8
  store i64 %0, ptr %2, align 8, !tbaa !7
  %3 = load i64, ptr %2, align 8, !tbaa !7
  %4 = icmp eq i64 %3, 0
  br i1 %4, label %8, label %5

5:                                                ; preds = %1
  %6 = load i64, ptr %2, align 8, !tbaa !7
  %7 = call zeroext i1 @RB_IMMEDIATE_P(i64 noundef %6) #23
  br label %8

8:                                                ; preds = %5, %1
  %9 = phi i1 [ true, %1 ], [ %7, %5 ]
  ret i1 %9
}

; Function Attrs: inlinehint nounwind sspstrong uwtable
define internal double @rb_float_noflonum_value(i64 noundef %0) #3 {
  %2 = alloca i64, align 8
  store i64 %0, ptr %2, align 8, !tbaa !7
  %3 = load i64, ptr %2, align 8, !tbaa !7
  %4 = inttoptr i64 %3 to ptr
  %5 = getelementptr inbounds nuw %struct.RFloat, ptr %4, i32 0, i32 1
  %6 = load double, ptr %5, align 8, !tbaa !44
  ret double %6
}

; Function Attrs: inlinehint nounwind sspstrong uwtable
define internal double @rb_float_flonum_value(i64 noundef %0) #3 {
  %2 = alloca double, align 8
  %3 = alloca i64, align 8
  %4 = alloca %union.anon.15, align 8
  %5 = alloca i64, align 8
  store i64 %0, ptr %3, align 8, !tbaa !7
  %6 = load i64, ptr %3, align 8, !tbaa !7
  %7 = icmp ne i64 %6, -9223372036854775806
  br i1 %7, label %8, label %18

8:                                                ; preds = %1
  call void @llvm.lifetime.start.p0(i64 8, ptr %4) #21
  call void @llvm.lifetime.start.p0(i64 8, ptr %5) #21
  %9 = load i64, ptr %3, align 8, !tbaa !7
  %10 = lshr i64 %9, 63
  store i64 %10, ptr %5, align 8, !tbaa !7
  %11 = load i64, ptr %5, align 8, !tbaa !7
  %12 = sub i64 2, %11
  %13 = load i64, ptr %3, align 8, !tbaa !7
  %14 = and i64 %13, -4
  %15 = or i64 %12, %14
  %16 = call i64 @RUBY_BIT_ROTR(i64 noundef %15, i32 noundef 3)
  store i64 %16, ptr %4, align 8, !tbaa !11
  %17 = load double, ptr %4, align 8, !tbaa !11
  store double %17, ptr %2, align 8
  call void @llvm.lifetime.end.p0(i64 8, ptr %5) #21
  call void @llvm.lifetime.end.p0(i64 8, ptr %4) #21
  br label %19

18:                                               ; preds = %1
  store double 0.000000e+00, ptr %2, align 8
  br label %19

19:                                               ; preds = %18, %8
  %20 = load double, ptr %2, align 8
  ret double %20
}

; Function Attrs: inlinehint nounwind sspstrong willreturn memory(none) uwtable
define internal zeroext i1 @RB_FLONUM_P(i64 noundef %0) #8 {
  %2 = alloca i64, align 8
  store i64 %0, ptr %2, align 8, !tbaa !7
  %3 = load i64, ptr %2, align 8, !tbaa !7
  %4 = and i64 %3, 3
  %5 = icmp eq i64 %4, 2
  ret i1 %5
}

; Function Attrs: inlinehint nounwind sspstrong willreturn memory(none) uwtable
define internal zeroext i1 @RB_TEST(i64 noundef %0) #8 {
  %2 = alloca i64, align 8
  store i64 %0, ptr %2, align 8, !tbaa !7
  %3 = load i64, ptr %2, align 8, !tbaa !7
  %4 = and i64 %3, -5
  %5 = icmp ne i64 %4, 0
  ret i1 %5
}

; Function Attrs: inlinehint nounwind sspstrong willreturn memory(read) uwtable
define internal zeroext i1 @rb_integer_type_p(i64 noundef %0) #5 {
  %2 = alloca i1, align 1
  %3 = alloca i64, align 8
  store i64 %0, ptr %3, align 8, !tbaa !7
  %4 = load i64, ptr %3, align 8, !tbaa !7
  %5 = call zeroext i1 @RB_FIXNUM_P(i64 noundef %4) #23
  br i1 %5, label %6, label %7

6:                                                ; preds = %1
  store i1 true, ptr %2, align 1
  br label %15

7:                                                ; preds = %1
  %8 = load i64, ptr %3, align 8, !tbaa !7
  %9 = call zeroext i1 @RB_SPECIAL_CONST_P(i64 noundef %8) #23
  br i1 %9, label %10, label %11

10:                                               ; preds = %7
  store i1 false, ptr %2, align 1
  br label %15

11:                                               ; preds = %7
  %12 = load i64, ptr %3, align 8, !tbaa !7
  %13 = call i32 @RB_BUILTIN_TYPE(i64 noundef %12) #22
  %14 = icmp eq i32 %13, 10
  store i1 %14, ptr %2, align 1
  br label %15

15:                                               ; preds = %11, %10, %6
  %16 = load i1, ptr %2, align 1
  ret i1 %16
}

; Function Attrs: inlinehint nounwind sspstrong uwtable
define internal double @rb_float_value_inline(i64 noundef %0) #3 {
  %2 = alloca double, align 8
  %3 = alloca i64, align 8
  store i64 %0, ptr %3, align 8, !tbaa !7
  %4 = load i64, ptr %3, align 8, !tbaa !7
  %5 = call zeroext i1 @RB_FLONUM_P(i64 noundef %4) #23
  br i1 %5, label %6, label %9

6:                                                ; preds = %1
  %7 = load i64, ptr %3, align 8, !tbaa !7
  %8 = call double @rb_float_flonum_value(i64 noundef %7)
  store double %8, ptr %2, align 8
  br label %12

9:                                                ; preds = %1
  %10 = load i64, ptr %3, align 8, !tbaa !7
  %11 = call double @rb_float_noflonum_value(i64 noundef %10)
  store double %11, ptr %2, align 8
  br label %12

12:                                               ; preds = %9, %6
  %13 = load double, ptr %2, align 8
  ret double %13
}

; Function Attrs: inlinehint nounwind sspstrong uwtable
define internal i32 @f_eqeq_p(i64 noundef %0, i64 noundef %1) #3 {
  %3 = alloca i32, align 4
  %4 = alloca i64, align 8
  %5 = alloca i64, align 8
  store i64 %0, ptr %4, align 8, !tbaa !7
  store i64 %1, ptr %5, align 8, !tbaa !7
  %6 = load i64, ptr %4, align 8, !tbaa !7
  %7 = call zeroext i1 @RB_FIXNUM_P(i64 noundef %6) #23
  br i1 %7, label %8, label %16

8:                                                ; preds = %2
  %9 = load i64, ptr %5, align 8, !tbaa !7
  %10 = call zeroext i1 @RB_FIXNUM_P(i64 noundef %9) #23
  br i1 %10, label %11, label %16

11:                                               ; preds = %8
  %12 = load i64, ptr %4, align 8, !tbaa !7
  %13 = load i64, ptr %5, align 8, !tbaa !7
  %14 = icmp eq i64 %12, %13
  %15 = zext i1 %14 to i32
  store i32 %15, ptr %3, align 4
  br label %30

16:                                               ; preds = %8, %2
  %17 = load i64, ptr %4, align 8, !tbaa !7
  %18 = call zeroext i1 @rb_integer_type_p(i64 noundef %17) #22
  br i1 %18, label %19, label %25

19:                                               ; preds = %16
  %20 = load i64, ptr %4, align 8, !tbaa !7
  %21 = load i64, ptr %5, align 8, !tbaa !7
  %22 = call i64 @rb_int_equal(i64 noundef %20, i64 noundef %21)
  %23 = call zeroext i1 @RB_TEST(i64 noundef %22) #23
  %24 = zext i1 %23 to i32
  store i32 %24, ptr %3, align 4
  br label %30

25:                                               ; preds = %16
  %26 = load i64, ptr %4, align 8, !tbaa !7
  %27 = load i64, ptr %5, align 8, !tbaa !7
  %28 = call i64 @rb_equal(i64 noundef %26, i64 noundef %27)
  %29 = trunc i64 %28 to i32
  store i32 %29, ptr %3, align 4
  br label %30

30:                                               ; preds = %25, %19, %11
  %31 = load i32, ptr %3, align 4
  ret i32 %31
}

; Function Attrs: nounwind sspstrong uwtable
define dso_local i64 @rb_rational_new(i64 noundef %0, i64 noundef %1) #0 {
  %3 = alloca i64, align 8
  %4 = alloca i64, align 8
  store i64 %0, ptr %3, align 8, !tbaa !7
  store i64 %1, ptr %4, align 8, !tbaa !7
  %5 = load i64, ptr @rb_cRational, align 8, !tbaa !7
  %6 = load i64, ptr %3, align 8, !tbaa !7
  %7 = load i64, ptr %4, align 8, !tbaa !7
  %8 = call i64 @nurat_s_canonicalize_internal(i64 noundef %5, i64 noundef %6, i64 noundef %7)
  ret i64 %8
}

; Function Attrs: inlinehint nounwind sspstrong willreturn memory(none) uwtable
define internal i64 @RB_INT2FIX(i64 noundef %0) #8 {
  %2 = alloca i64, align 8
  %3 = alloca i64, align 8
  %4 = alloca i64, align 8
  %5 = alloca i64, align 8
  %6 = alloca i64, align 8
  %7 = alloca i64, align 8
  store i64 %0, ptr %2, align 8, !tbaa !7
  call void @llvm.lifetime.start.p0(i64 8, ptr %3) #21
  %8 = load i64, ptr %2, align 8, !tbaa !7
  store i64 %8, ptr %3, align 8, !tbaa !7
  call void @llvm.lifetime.start.p0(i64 8, ptr %4) #21
  %9 = load i64, ptr %3, align 8, !tbaa !7
  %10 = shl i64 %9, 1
  %11 = add i64 %10, 1
  store i64 %11, ptr %4, align 8, !tbaa !7
  call void @llvm.lifetime.start.p0(i64 8, ptr %5) #21
  %12 = load i64, ptr %4, align 8, !tbaa !7
  store i64 %12, ptr %5, align 8, !tbaa !7
  call void @llvm.lifetime.start.p0(i64 8, ptr %6) #21
  %13 = load i64, ptr %5, align 8, !tbaa !7
  store i64 %13, ptr %6, align 8, !tbaa !7
  call void @llvm.lifetime.start.p0(i64 8, ptr %7) #21
  %14 = load i64, ptr %6, align 8, !tbaa !7
  store i64 %14, ptr %7, align 8, !tbaa !7
  %15 = load i64, ptr %7, align 8, !tbaa !7
  call void @llvm.lifetime.end.p0(i64 8, ptr %7) #21
  call void @llvm.lifetime.end.p0(i64 8, ptr %6) #21
  call void @llvm.lifetime.end.p0(i64 8, ptr %5) #21
  call void @llvm.lifetime.end.p0(i64 8, ptr %4) #21
  call void @llvm.lifetime.end.p0(i64 8, ptr %3) #21
  ret i64 %15
}

; Function Attrs: inlinehint nounwind sspstrong uwtable
define internal zeroext i1 @FIXNUM_ZERO_P(i64 noundef %0) #3 {
  %2 = alloca i64, align 8
  store i64 %0, ptr %2, align 8, !tbaa !7
  %3 = load i64, ptr %2, align 8, !tbaa !7
  %4 = icmp eq i64 %3, 1
  ret i1 %4
}

; Function Attrs: inlinehint nounwind sspstrong willreturn memory(none) uwtable
define internal zeroext i1 @RB_FIXNUM_P(i64 noundef %0) #8 {
  %2 = alloca i64, align 8
  store i64 %0, ptr %2, align 8, !tbaa !7
  %3 = load i64, ptr %2, align 8, !tbaa !7
  %4 = and i64 %3, 1
  %5 = icmp ne i64 %4, 0
  ret i1 %5
}

; Function Attrs: nounwind sspstrong uwtable
define internal void @float_decode_internal(i64 noundef %0, ptr noundef %1, ptr noundef %2) #0 {
  %4 = alloca i64, align 8
  %5 = alloca ptr, align 8
  %6 = alloca ptr, align 8
  %7 = alloca double, align 8
  store i64 %0, ptr %4, align 8, !tbaa !7
  store ptr %1, ptr %5, align 8, !tbaa !28
  store ptr %2, ptr %6, align 8, !tbaa !34
  call void @llvm.lifetime.start.p0(i64 8, ptr %7) #21
  %8 = load i64, ptr %4, align 8, !tbaa !7
  %9 = call double @rb_float_value_inline(i64 noundef %8)
  %10 = load ptr, ptr %6, align 8, !tbaa !34
  %11 = call double @frexp(double noundef %9, ptr noundef %10) #21
  store double %11, ptr %7, align 8, !tbaa !22
  %12 = load double, ptr %7, align 8, !tbaa !22
  %13 = call double @ldexp(double noundef %12, i32 noundef 53) #21, !tbaa !14
  store double %13, ptr %7, align 8, !tbaa !22
  %14 = load ptr, ptr %6, align 8, !tbaa !34
  %15 = load i32, ptr %14, align 4, !tbaa !14
  %16 = sub i32 %15, 53
  store i32 %16, ptr %14, align 4, !tbaa !14
  %17 = load double, ptr %7, align 8, !tbaa !22
  %18 = call i64 @rb_dbl2big(double noundef %17)
  %19 = load ptr, ptr %5, align 8, !tbaa !28
  store i64 %18, ptr %19, align 8, !tbaa !7
  call void @llvm.lifetime.end.p0(i64 8, ptr %7) #21
  ret void
}

; Function Attrs: nounwind sspstrong uwtable
define dso_local i64 @rb_flt_rationalize(i64 noundef %0) #0 {
  %2 = alloca i64, align 8
  %3 = alloca i64, align 8
  %4 = alloca i64, align 8
  %5 = alloca i64, align 8
  %6 = alloca i64, align 8
  %7 = alloca i64, align 8
  %8 = alloca i64, align 8
  %9 = alloca i64, align 8
  %10 = alloca i32, align 4
  %11 = alloca i32, align 4
  %12 = alloca i64, align 8
  store i64 %0, ptr %3, align 8, !tbaa !7
  call void @llvm.lifetime.start.p0(i64 8, ptr %4) #21
  call void @llvm.lifetime.start.p0(i64 8, ptr %5) #21
  call void @llvm.lifetime.start.p0(i64 8, ptr %6) #21
  call void @llvm.lifetime.start.p0(i64 8, ptr %7) #21
  call void @llvm.lifetime.start.p0(i64 8, ptr %8) #21
  call void @llvm.lifetime.start.p0(i64 8, ptr %9) #21
  call void @llvm.lifetime.start.p0(i64 4, ptr %10) #21
  %13 = load i64, ptr %3, align 8, !tbaa !7
  call void @float_decode_internal(i64 noundef %13, ptr noundef %6, ptr noundef %10)
  %14 = load i64, ptr %6, align 8, !tbaa !7
  %15 = call zeroext i1 @RB_FIXNUM_P(i64 noundef %14) #23
  br i1 %15, label %16, label %19

16:                                               ; preds = %1
  %17 = load i64, ptr %6, align 8, !tbaa !7
  %18 = call zeroext i1 @FIXNUM_ZERO_P(i64 noundef %17)
  br i1 %18, label %26, label %23

19:                                               ; preds = %1
  %20 = load i64, ptr %6, align 8, !tbaa !7
  %21 = call i32 @rb_bigzero_p(i64 noundef %20)
  %22 = icmp ne i32 %21, 0
  br i1 %22, label %26, label %23

23:                                               ; preds = %19, %16
  %24 = load i32, ptr %10, align 4, !tbaa !14
  %25 = icmp sge i32 %24, 0
  br i1 %25, label %26, label %33

26:                                               ; preds = %23, %19, %16
  %27 = load i64, ptr %6, align 8, !tbaa !7
  %28 = load i32, ptr %10, align 4, !tbaa !14
  %29 = sext i32 %28 to i64
  %30 = call i64 @RB_INT2FIX(i64 noundef %29) #23
  %31 = call i64 @rb_int_lshift(i64 noundef %27, i64 noundef %30)
  %32 = call i64 @rb_rational_new(i64 noundef %31, i64 noundef 3)
  store i64 %32, ptr %2, align 8
  store i32 1, ptr %11, align 4
  br label %63

33:                                               ; preds = %23
  call void @llvm.lifetime.start.p0(i64 8, ptr %12) #21
  %34 = load i64, ptr %6, align 8, !tbaa !7
  %35 = call i64 @rb_int_mul(i64 noundef 5, i64 noundef %34)
  store i64 %35, ptr %12, align 8, !tbaa !7
  %36 = load i32, ptr %10, align 4, !tbaa !14
  %37 = sub i32 1, %36
  %38 = sext i32 %37 to i64
  %39 = call i64 @rb_int_positive_pow(i64 noundef 2, i64 noundef %38)
  store i64 %39, ptr %9, align 8, !tbaa !7
  %40 = load i64, ptr %12, align 8, !tbaa !7
  %41 = call i64 @rb_int_minus(i64 noundef %40, i64 noundef 3)
  store i64 %41, ptr %4, align 8, !tbaa !7
  %42 = load i64, ptr %12, align 8, !tbaa !7
  %43 = call i64 @rb_int_plus(i64 noundef %42, i64 noundef 3)
  store i64 %43, ptr %5, align 8, !tbaa !7
  call void @llvm.lifetime.end.p0(i64 8, ptr %12) #21
  %44 = load i64, ptr %4, align 8, !tbaa !7
  %45 = load i64, ptr %5, align 8, !tbaa !7
  %46 = call i32 @f_eqeq_p(i64 noundef %44, i64 noundef %45)
  %47 = icmp ne i32 %46, 0
  br i1 %47, label %48, label %51

48:                                               ; preds = %33
  %49 = load i64, ptr %3, align 8, !tbaa !7
  %50 = call i64 @float_to_r(i64 noundef %49)
  store i64 %50, ptr %2, align 8
  store i32 1, ptr %11, align 4
  br label %63

51:                                               ; preds = %33
  %52 = load i64, ptr %4, align 8, !tbaa !7
  %53 = load i64, ptr %9, align 8, !tbaa !7
  %54 = call i64 @rb_rational_new(i64 noundef %52, i64 noundef %53)
  store i64 %54, ptr %4, align 8, !tbaa !7
  %55 = load i64, ptr %5, align 8, !tbaa !7
  %56 = load i64, ptr %9, align 8, !tbaa !7
  %57 = call i64 @rb_rational_new(i64 noundef %55, i64 noundef %56)
  store i64 %57, ptr %5, align 8, !tbaa !7
  %58 = load i64, ptr %4, align 8, !tbaa !7
  %59 = load i64, ptr %5, align 8, !tbaa !7
  call void @nurat_rationalize_internal(i64 noundef %58, i64 noundef %59, ptr noundef %7, ptr noundef %8)
  %60 = load i64, ptr %7, align 8, !tbaa !7
  %61 = load i64, ptr %8, align 8, !tbaa !7
  %62 = call i64 @rb_rational_new(i64 noundef %60, i64 noundef %61)
  store i64 %62, ptr %2, align 8
  store i32 1, ptr %11, align 4
  br label %63

63:                                               ; preds = %51, %48, %26
  call void @llvm.lifetime.end.p0(i64 4, ptr %10) #21
  call void @llvm.lifetime.end.p0(i64 8, ptr %9) #21
  call void @llvm.lifetime.end.p0(i64 8, ptr %8) #21
  call void @llvm.lifetime.end.p0(i64 8, ptr %7) #21
  call void @llvm.lifetime.end.p0(i64 8, ptr %6) #21
  call void @llvm.lifetime.end.p0(i64 8, ptr %5) #21
  call void @llvm.lifetime.end.p0(i64 8, ptr %4) #21
  %64 = load i64, ptr %2, align 8
  ret i64 %64
}