; Function Attrs: nounwind sspstrong uwtable
define dso_local i64 @rb_flt_rationalize(i64 noundef %0) local_unnamed_addr #0 {
  %2 = alloca i64, align 8
  %3 = alloca i64, align 8
  %4 = alloca i64, align 8
  %5 = alloca i64, align 8
  %6 = alloca i32, align 4
  call void @llvm.lifetime.start.p0(i64 8, ptr nonnull %4) #17
  call void @llvm.lifetime.start.p0(i64 8, ptr nonnull %5) #17
  call void @llvm.lifetime.start.p0(i64 4, ptr nonnull %6) #17
  %7 = and i64 %0, 3
  %8 = icmp eq i64 %7, 2
  br i1 %8, label %9, label %16

9:                                                ; preds = %1
  %.not.i.i.i = icmp eq i64 %0, -9223372036854775806
  br i1 %.not.i.i.i, label %float_decode_internal.exit, label %10

10:                                               ; preds = %9
  %.neg.i.i.i = ashr i64 %0, 63
  %11 = add nsw i64 %.neg.i.i.i, 2
  %12 = and i64 %0, -4
  %13 = or i64 %11, %12
  %14 = tail call noundef i64 @llvm.fshl.i64(i64 range(i64 1, 0) %13, i64 range(i64 1, 0) %13, i64 61)
  %15 = bitcast i64 %14 to double
  br label %float_decode_internal.exit

16:                                               ; preds = %1
  %17 = inttoptr i64 %0 to ptr
  %18 = getelementptr inbounds nuw i8, ptr %17, i64 16
  %19 = load double, ptr %18, align 8, !tbaa !22
  br label %float_decode_internal.exit

float_decode_internal.exit:                       ; preds = %9, %10, %16
  %.0.i.i = phi double [ %19, %16 ], [ %15, %10 ], [ 0.000000e+00, %9 ]
  %20 = call double @frexp(double noundef %.0.i.i, ptr noundef nonnull %6) #17
  %21 = tail call double @ldexp(double noundef %20, i32 noundef 53) #17, !tbaa !28
  %22 = load i32, ptr %6, align 4, !tbaa !28
  %23 = add i32 %22, -53
  %24 = tail call i64 @rb_dbl2big(double noundef %21) #17
  %25 = and i64 %24, 1
  %.not17 = icmp eq i64 %25, 0
  br i1 %.not17, label %28, label %26

26:                                               ; preds = %float_decode_internal.exit
  %27 = icmp eq i64 %24, 1
  %.old = icmp sgt i32 %23, -1
  %or.cond16 = select i1 %27, i1 true, i1 %.old
  br i1 %or.cond16, label %31, label %55

28:                                               ; preds = %float_decode_internal.exit
  %29 = tail call i32 @rb_bigzero_p(i64 noundef %24) #17
  %.not = icmp ne i32 %29, 0
  %30 = icmp sgt i32 %23, -1
  %or.cond = select i1 %.not, i1 true, i1 %30
  br i1 %or.cond, label %31, label %55

31:                                               ; preds = %28, %26
  %32 = sext i32 %23 to i64
  %33 = shl nsw i64 %32, 1
  %34 = or disjoint i64 %33, 1
  %35 = tail call i64 @rb_int_lshift(i64 noundef %24, i64 noundef %34) #17
  %36 = load i64, ptr @rb_cRational, align 8, !tbaa !18
  call void @llvm.lifetime.start.p0(i64 8, ptr nonnull %2)
  call void @llvm.lifetime.start.p0(i64 8, ptr nonnull %3)
  store i64 %35, ptr %2, align 8, !tbaa !18
  store i64 3, ptr %3, align 8, !tbaa !18
  call fastcc void @nurat_reduce(ptr noundef %2, ptr noundef %3)
  %37 = load i64, ptr %2, align 8, !tbaa !18
  %38 = load i64, ptr %3, align 8, !tbaa !18
  %39 = tail call align 8 ptr @llvm.threadlocal.address.p0(ptr align 8 @ruby_current_ec)
  %40 = load ptr, ptr %39, align 8, !tbaa !25
  %41 = tail call i64 @rb_wb_protected_newobj_of(ptr noundef %40, i64 noundef %36, i64 noundef 15, i64 noundef 32) #17
  %42 = inttoptr i64 %41 to ptr
  %43 = getelementptr inbounds nuw i8, ptr %42, i64 16
  store i64 %37, ptr %43, align 8, !tbaa !18
  %44 = icmp eq i64 %37, 0
  %45 = and i64 %37, 7
  %46 = icmp ne i64 %45, 0
  %47 = or i1 %44, %46
  br i1 %47, label %RATIONAL_SET_NUM.exit.i.i, label %48

48:                                               ; preds = %31
  tail call void @rb_gc_writebarrier(i64 noundef %41, i64 noundef %37) #17
  br label %RATIONAL_SET_NUM.exit.i.i

RATIONAL_SET_NUM.exit.i.i:                        ; preds = %48, %31
  %49 = getelementptr inbounds nuw i8, ptr %42, i64 24
  store i64 %38, ptr %49, align 8, !tbaa !18
  %50 = icmp eq i64 %38, 0
  %51 = and i64 %38, 7
  %52 = icmp ne i64 %51, 0
  %53 = or i1 %50, %52
  br i1 %53, label %nurat_s_canonicalize_internal.exit, label %54

54:                                               ; preds = %RATIONAL_SET_NUM.exit.i.i
  tail call void @rb_gc_writebarrier(i64 noundef %41, i64 noundef %38) #17
  br label %nurat_s_canonicalize_internal.exit

nurat_s_canonicalize_internal.exit:               ; preds = %RATIONAL_SET_NUM.exit.i.i, %54
  tail call void @rb_obj_freeze_inline(i64 noundef %41) #17
  call void @llvm.lifetime.end.p0(i64 8, ptr nonnull %2)
  call void @llvm.lifetime.end.p0(i64 8, ptr nonnull %3)
  br label %91

55:                                               ; preds = %26, %28
  %56 = tail call i64 @rb_int_mul(i64 noundef 5, i64 noundef %24) #17
  %57 = sub i32 54, %22
  %58 = sext i32 %57 to i64
  %59 = tail call i64 @rb_int_positive_pow(i64 noundef 2, i64 noundef %58) #17
  %60 = tail call i64 @rb_int_minus(i64 noundef %56, i64 noundef 3) #17
  %61 = tail call i64 @rb_int_plus(i64 noundef %56, i64 noundef 3) #17
  %62 = and i64 %60, 1
  %.not.i = icmp eq i64 %62, 0
  br i1 %.not.i, label %66, label %63

63:                                               ; preds = %55
  %64 = and i64 %61, 1
  %.not14.i = icmp eq i64 %64, 0
  br i1 %.not14.i, label %rb_integer_type_p.exit.thread.i, label %65

65:                                               ; preds = %63
  %.not19 = icmp eq i64 %60, %61
  br i1 %.not19, label %80, label %82

66:                                               ; preds = %55
  %67 = icmp eq i64 %60, 0
  %68 = and i64 %60, 6
  %69 = icmp ne i64 %68, 0
  %70 = or i1 %67, %69
  br i1 %70, label %f_eqeq_p.exit, label %rb_integer_type_p.exit.i

rb_integer_type_p.exit.i:                         ; preds = %66
  %71 = inttoptr i64 %60 to ptr
  %72 = load i64, ptr %71, align 8, !tbaa !7
  %73 = and i64 %72, 31
  %74 = icmp eq i64 %73, 10
  br i1 %74, label %rb_integer_type_p.exit.thread.i, label %f_eqeq_p.exit

rb_integer_type_p.exit.thread.i:                  ; preds = %rb_integer_type_p.exit.i, %63
  %75 = tail call i64 @rb_int_equal(i64 noundef %60, i64 noundef %61) #17
  %76 = and i64 %75, -5
  %.not18 = icmp eq i64 %76, 0
  br i1 %.not18, label %82, label %80

f_eqeq_p.exit:                                    ; preds = %66, %rb_integer_type_p.exit.i
  %77 = tail call i64 @rb_equal(i64 noundef %60, i64 noundef %61) #17
  %78 = and i64 %77, 4294967295
  %79 = icmp eq i64 %78, 0
  br i1 %79, label %82, label %80

80:                                               ; preds = %rb_integer_type_p.exit.thread.i, %65, %f_eqeq_p.exit
  %81 = tail call i64 @float_to_r(i64 noundef %0)
  br label %91

82:                                               ; preds = %rb_integer_type_p.exit.thread.i, %65, %f_eqeq_p.exit
  %83 = load i64, ptr @rb_cRational, align 8, !tbaa !18
  %84 = tail call fastcc i64 @nurat_s_canonicalize_internal(i64 noundef %83, i64 noundef %60, i64 noundef %59)
  %85 = load i64, ptr @rb_cRational, align 8, !tbaa !18
  %86 = tail call fastcc i64 @nurat_s_canonicalize_internal(i64 noundef %85, i64 noundef %61, i64 noundef %59)
  call fastcc void @nurat_rationalize_internal(i64 noundef %84, i64 noundef %86, ptr noundef %4, ptr noundef %5)
  %87 = load i64, ptr %4, align 8, !tbaa !18
  %88 = load i64, ptr %5, align 8, !tbaa !18
  %89 = load i64, ptr @rb_cRational, align 8, !tbaa !18
  %90 = tail call fastcc i64 @nurat_s_canonicalize_internal(i64 noundef %89, i64 noundef %87, i64 noundef %88)
  br label %91

91:                                               ; preds = %82, %80, %nurat_s_canonicalize_internal.exit
  %.0 = phi i64 [ %41, %nurat_s_canonicalize_internal.exit ], [ %81, %80 ], [ %90, %82 ]
  call void @llvm.lifetime.end.p0(i64 4, ptr nonnull %6) #17
  call void @llvm.lifetime.end.p0(i64 8, ptr nonnull %5) #17
  call void @llvm.lifetime.end.p0(i64 8, ptr nonnull %4) #17
  ret i64 %.0
}